; ModuleID = '55/486.c'
source_filename = "55/486.c"
target datalayout = "e-m:e-p270:32:32-p271:32:32-p272:64:64-i64:64-f80:128-n8:16:32:64-S128"
target triple = "x86_64-pc-linux-gnu"

@.str = private unnamed_addr constant [7 x i8] c"%d%s%d\00", align 1
@.str.1 = private unnamed_addr constant [3 x i8] c"%c\00", align 1

; Function Attrs: noinline nounwind uwtable
define dso_local void @main() #0 {
  %1 = alloca [50 x i8], align 16
  %2 = alloca i32, align 4
  %3 = alloca i32, align 4
  %4 = alloca i32, align 4
  %5 = alloca i32, align 4
  %6 = alloca i32, align 4
  %7 = alloca i32, align 4
  %8 = alloca [50 x i32], align 16
  store i32 0, i32* %2, align 4
  %9 = getelementptr inbounds [50 x i8], [50 x i8]* %1, i64 0, i64 0
  %10 = call i32 (i8*, ...) @__isoc99_scanf(i8* getelementptr inbounds ([7 x i8], [7 x i8]* @.str, i64 0, i64 0), i32* %5, i8* %9, i32* %6)
  %11 = getelementptr inbounds [50 x i8], [50 x i8]* %1, i64 0, i64 0
  %12 = call i64 @strlen(i8* %11) #4
  %13 = trunc i64 %12 to i32
  store i32 %13, i32* %7, align 4
  store i32 0, i32* %3, align 4
  br label %14

14:                                               ; preds = %124, %0
  %15 = load i32, i32* %3, align 4
  %16 = load i32, i32* %7, align 4
  %17 = icmp slt i32 %15, %16
  br i1 %17, label %18, label %127

18:                                               ; preds = %14
  %19 = load i32, i32* %3, align 4
  %20 = sext i32 %19 to i64
  %21 = getelementptr inbounds [50 x i8], [50 x i8]* %1, i64 0, i64 %20
  %22 = load i8, i8* %21, align 1
  %23 = sext i8 %22 to i32
  %24 = icmp sgt i32 %23, 47
  br i1 %24, label %25, label %53

25:                                               ; preds = %18
  %26 = load i32, i32* %3, align 4
  %27 = sext i32 %26 to i64
  %28 = getelementptr inbounds [50 x i8], [50 x i8]* %1, i64 0, i64 %27
  %29 = load i8, i8* %28, align 1
  %30 = sext i8 %29 to i32
  %31 = icmp slt i32 %30, 58
  br i1 %31, label %32, label %53

32:                                               ; preds = %25
  %33 = load i32, i32* %2, align 4
  %34 = sitofp i32 %33 to double
  %35 = load i32, i32* %3, align 4
  %36 = sext i32 %35 to i64
  %37 = getelementptr inbounds [50 x i8], [50 x i8]* %1, i64 0, i64 %36
  %38 = load i8, i8* %37, align 1
  %39 = sext i8 %38 to i32
  %40 = sub nsw i32 %39, 48
  %41 = sitofp i32 %40 to double
  %42 = load i32, i32* %5, align 4
  %43 = sitofp i32 %42 to double
  %44 = load i32, i32* %7, align 4
  %45 = load i32, i32* %3, align 4
  %46 = sub nsw i32 %44, %45
  %47 = sub nsw i32 %46, 1
  %48 = sitofp i32 %47 to double
  %49 = call double @pow(double %43, double %48) #5
  %50 = fmul double %41, %49
  %51 = fadd double %34, %50
  %52 = fptosi double %51 to i32
  store i32 %52, i32* %2, align 4
  br label %53

53:                                               ; preds = %32, %25, %18
  %54 = load i32, i32* %3, align 4
  %55 = sext i32 %54 to i64
  %56 = getelementptr inbounds [50 x i8], [50 x i8]* %1, i64 0, i64 %55
  %57 = load i8, i8* %56, align 1
  %58 = sext i8 %57 to i32
  %59 = icmp sgt i32 %58, 64
  br i1 %59, label %60, label %88

60:                                               ; preds = %53
  %61 = load i32, i32* %3, align 4
  %62 = sext i32 %61 to i64
  %63 = getelementptr inbounds [50 x i8], [50 x i8]* %1, i64 0, i64 %62
  %64 = load i8, i8* %63, align 1
  %65 = sext i8 %64 to i32
  %66 = icmp slt i32 %65, 91
  br i1 %66, label %67, label %88

67:                                               ; preds = %60
  %68 = load i32, i32* %2, align 4
  %69 = sitofp i32 %68 to double
  %70 = load i32, i32* %3, align 4
  %71 = sext i32 %70 to i64
  %72 = getelementptr inbounds [50 x i8], [50 x i8]* %1, i64 0, i64 %71
  %73 = load i8, i8* %72, align 1
  %74 = sext i8 %73 to i32
  %75 = sub nsw i32 %74, 55
  %76 = sitofp i32 %75 to double
  %77 = load i32, i32* %5, align 4
  %78 = sitofp i32 %77 to double
  %79 = load i32, i32* %7, align 4
  %80 = load i32, i32* %3, align 4
  %81 = sub nsw i32 %79, %80
  %82 = sub nsw i32 %81, 1
  %83 = sitofp i32 %82 to double
  %84 = call double @pow(double %78, double %83) #5
  %85 = fmul double %76, %84
  %86 = fadd double %69, %85
  %87 = fptosi double %86 to i32
  store i32 %87, i32* %2, align 4
  br label %88

88:                                               ; preds = %67, %60, %53
  %89 = load i32, i32* %3, align 4
  %90 = sext i32 %89 to i64
  %91 = getelementptr inbounds [50 x i8], [50 x i8]* %1, i64 0, i64 %90
  %92 = load i8, i8* %91, align 1
  %93 = sext i8 %92 to i32
  %94 = icmp sgt i32 %93, 96
  br i1 %94, label %95, label %123

95:                                               ; preds = %88
  %96 = load i32, i32* %3, align 4
  %97 = sext i32 %96 to i64
  %98 = getelementptr inbounds [50 x i8], [50 x i8]* %1, i64 0, i64 %97
  %99 = load i8, i8* %98, align 1
  %100 = sext i8 %99 to i32
  %101 = icmp slt i32 %100, 123
  br i1 %101, label %102, label %123

102:                                              ; preds = %95
  %103 = load i32, i32* %2, align 4
  %104 = sitofp i32 %103 to double
  %105 = load i32, i32* %3, align 4
  %106 = sext i32 %105 to i64
  %107 = getelementptr inbounds [50 x i8], [50 x i8]* %1, i64 0, i64 %106
  %108 = load i8, i8* %107, align 1
  %109 = sext i8 %108 to i32
  %110 = sub nsw i32 %109, 87
  %111 = sitofp i32 %110 to double
  %112 = load i32, i32* %5, align 4
  %113 = sitofp i32 %112 to double
  %114 = load i32, i32* %7, align 4
  %115 = load i32, i32* %3, align 4
  %116 = sub nsw i32 %114, %115
  %117 = sub nsw i32 %116, 1
  %118 = sitofp i32 %117 to double
  %119 = call double @pow(double %113, double %118) #5
  %120 = fmul double %111, %119
  %121 = fadd double %104, %120
  %122 = fptosi double %121 to i32
  store i32 %122, i32* %2, align 4
  br label %123

123:                                              ; preds = %102, %95, %88
  br label %124

124:                                              ; preds = %123
  %125 = load i32, i32* %3, align 4
  %126 = add nsw i32 %125, 1
  store i32 %126, i32* %3, align 4
  br label %14

127:                                              ; preds = %14
  store i32 0, i32* %4, align 4
  br label %128

128:                                              ; preds = %162, %127
  %129 = load i32, i32* %2, align 4
  %130 = load i32, i32* %6, align 4
  %131 = srem i32 %129, %130
  store i32 %131, i32* %3, align 4
  %132 = load i32, i32* %2, align 4
  %133 = load i32, i32* %3, align 4
  %134 = sub nsw i32 %132, %133
  %135 = load i32, i32* %6, align 4
  %136 = sdiv i32 %134, %135
  store i32 %136, i32* %2, align 4
  %137 = load i32, i32* %3, align 4
  %138 = icmp sge i32 %137, 0
  br i1 %138, label %139, label %148

139:                                              ; preds = %128
  %140 = load i32, i32* %3, align 4
  %141 = icmp slt i32 %140, 10
  br i1 %141, label %142, label %148

142:                                              ; preds = %139
  %143 = load i32, i32* %3, align 4
  %144 = add nsw i32 %143, 48
  %145 = load i32, i32* %4, align 4
  %146 = sext i32 %145 to i64
  %147 = getelementptr inbounds [50 x i32], [50 x i32]* %8, i64 0, i64 %146
  store i32 %144, i32* %147, align 4
  br label %148

148:                                              ; preds = %142, %139, %128
  %149 = load i32, i32* %3, align 4
  %150 = icmp sge i32 %149, 10
  br i1 %150, label %151, label %157

151:                                              ; preds = %148
  %152 = load i32, i32* %3, align 4
  %153 = add nsw i32 %152, 55
  %154 = load i32, i32* %4, align 4
  %155 = sext i32 %154 to i64
  %156 = getelementptr inbounds [50 x i32], [50 x i32]* %8, i64 0, i64 %155
  store i32 %153, i32* %156, align 4
  br label %157

157:                                              ; preds = %151, %148
  %158 = load i32, i32* %2, align 4
  %159 = icmp eq i32 %158, 0
  br i1 %159, label %160, label %161

160:                                              ; preds = %157
  br label %165

161:                                              ; preds = %157
  br label %162

162:                                              ; preds = %161
  %163 = load i32, i32* %4, align 4
  %164 = add nsw i32 %163, 1
  store i32 %164, i32* %4, align 4
  br label %128

165:                                              ; preds = %160
  %166 = load i32, i32* %4, align 4
  store i32 %166, i32* %3, align 4
  br label %167

167:                                              ; preds = %176, %165
  %168 = load i32, i32* %3, align 4
  %169 = icmp sge i32 %168, 0
  br i1 %169, label %170, label %179

170:                                              ; preds = %167
  %171 = load i32, i32* %3, align 4
  %172 = sext i32 %171 to i64
  %173 = getelementptr inbounds [50 x i32], [50 x i32]* %8, i64 0, i64 %172
  %174 = load i32, i32* %173, align 4
  %175 = call i32 (i8*, ...) @printf(i8* getelementptr inbounds ([3 x i8], [3 x i8]* @.str.1, i64 0, i64 0), i32 %174)
  br label %176

176:                                              ; preds = %170
  %177 = load i32, i32* %3, align 4
  %178 = add nsw i32 %177, -1
  store i32 %178, i32* %3, align 4
  br label %167

179:                                              ; preds = %167
  ret void
}

declare dso_local i32 @__isoc99_scanf(i8*, ...) #1

; Function Attrs: nounwind readonly
declare dso_local i64 @strlen(i8*) #2

; Function Attrs: nounwind
declare dso_local double @pow(double, double) #3

declare dso_local i32 @printf(i8*, ...) #1


!llvm.module.flags = !{!0}
!llvm.ident = !{!1}

!0 = !{i32 1, !"wchar_size", i32 4}
!1 = !{!"clang version 10.0.0-4ubuntu1 "}
